target datalayout = "e-m:e-p270:32:32-p271:32:32-p272:64:64-i64:64-i128:128-f80:128-n8:16:32:64-S128"
target triple = "x86_64-pc-linux-gnu"

%struct.ssl_connection_st = type { %struct.ssl_st, ptr, i32, ptr, ptr, ptr, i32, ptr, i32, i32, i32, i32, %struct.OSSL_TIME, %struct.OSSL_TIME, %struct.ossl_statem_st, i32, ptr, ptr, i64, i64, i64, %struct.ossl_quic_tls_callbacks_st, ptr, ptr, %struct.anon, ptr, ptr, ptr, i32, ptr, %struct.ssl_dane_st, ptr, ptr, ptr, ptr, i32, [64 x i8], [64 x i8], [64 x i8], [64 x i8], [64 x i8], [64 x i8], [64 x i8], [64 x i8], [64 x i8], [64 x i8], [64 x i8], [64 x i8], ptr, [64 x i8], i64, i32, i64, [32 x i8], ptr, ptr, ptr, i64, ptr, [32 x i8], i64, i32, ptr, ptr, i32, i32, ptr, ptr, ptr, ptr, ptr, i64, ptr, ptr, i64, i32, i32, i32, i64, i32, i32, i64, i64, i64, %struct.anon.1, ptr, i32, ptr, ptr, ptr, i32, ptr, ptr, ptr, i32, i32, i32, i32, ptr, i64, i32, ptr, %struct.srp_ctx_st, ptr, %struct.record_layer_st, ptr, ptr, ptr, ptr, i64, i32, i32, i32, i64, i64, i64, ptr, ptr, ptr, ptr, ptr, i64, ptr, i64, ptr, i64 }
%struct.ssl_st = type { i32, ptr, ptr, ptr, %struct.CRYPTO_REF_COUNT, ptr, %struct.crypto_ex_data_st }
%struct.CRYPTO_REF_COUNT = type { i32 }
%struct.crypto_ex_data_st = type { ptr, ptr }
%struct.OSSL_TIME = type { i64 }
%struct.ossl_statem_st = type { i32, i32, i32, i32, i32, i32, i32, i32, i32, i32, i32, i32, i32, ptr, ptr, ptr, i8 }
%struct.ossl_quic_tls_callbacks_st = type { ptr, ptr, ptr, ptr, ptr, ptr }
%struct.anon = type { i64, [32 x i8], [32 x i8], ptr, ptr, i32, i32, i32, i32, [2 x i8], i32, i32, i32, i32, %struct.anon.0, [64 x i8], i64, [64 x i8], i64, i32, i32, ptr, i64, ptr, i64, i32, i8, i8, i16, ptr, i16 }
%struct.anon.0 = type { [128 x i8], i64, [128 x i8], i64, i64, i32, ptr, ptr, [4 x ptr], [4 x i16], i64, i32, ptr, i64, ptr, i64, ptr, ptr, ptr, i32, i64, ptr, i32, ptr, i64, ptr, i64, ptr, i64, ptr, ptr, ptr, ptr, i64, i64, ptr, ptr, i32, i32, i32, i32 }
%struct.ssl_dane_st = type { ptr, ptr, ptr, ptr, ptr, i32, i32, i32, i64 }
%struct.anon.1 = type { [29 x i8], ptr, ptr, ptr, i32, ptr, i16, i32, %struct.anon.2, i32, i32, i64, ptr, i64, ptr, i64, ptr, i64, ptr, i64, ptr, i64, ptr, ptr, ptr, ptr, ptr, ptr, ptr, i64, ptr, i64, i32, i32, i32, i32, ptr, i64, i32, i8, i32, [4 x i32], i32, i8, i8, i8, i8 }
%struct.anon.2 = type { ptr, ptr, ptr, i64 }
%struct.srp_ctx_st = type { ptr, ptr, ptr, ptr, ptr, ptr, ptr, ptr, ptr, ptr, ptr, ptr, ptr, ptr, i32, i64 }
%struct.record_layer_st = type { ptr, ptr, ptr, ptr, ptr, ptr, ptr, ptr, i64, i32, i64, [4 x i8], i64, i64, i8, ptr, i32, ptr, ptr, ptr, i64, i64, i64, i64, [32 x %struct.tls_record_st] }
%struct.tls_record_st = type { ptr, i32, i8, ptr, ptr, i64, i64, i16, [8 x i8] }
%struct.ssl_method_st = type { i32, i32, i64, ptr, ptr, ptr, ptr, ptr, ptr, ptr, ptr, ptr, ptr, ptr, ptr, ptr, ptr, ptr, ptr, ptr, ptr, ptr, ptr, ptr, ptr, ptr, ptr, ptr, ptr, ptr, ptr, ptr }
%struct.ssl3_enc_method = type { ptr, ptr, ptr, ptr, ptr, i64, ptr, i64, ptr, ptr, i32, ptr, ptr, ptr }

@.str = private unnamed_addr constant [36 x i8] c"../openssl/ssl/statem/statem_clnt.c\00", align 1
@__func__.ossl_statem_client_construct_message = private unnamed_addr constant [37 x i8] c"ossl_statem_client_construct_message\00", align 1

; Function Attrs: nounwind uwtable
define i32 @ossl_statem_client_construct_message(ptr noundef %0, ptr noundef %1, ptr noundef %2) #0 {
  %4 = alloca i32, align 4
  %5 = alloca ptr, align 8
  %6 = alloca ptr, align 8
  %7 = alloca ptr, align 8
  %8 = alloca ptr, align 8
  %9 = alloca i32, align 4
  store ptr %0, ptr %5, align 8, !tbaa !3
  store ptr %1, ptr %6, align 8, !tbaa !125
  store ptr %2, ptr %7, align 8, !tbaa !126
  call void @llvm.lifetime.start.p0(i64 8, ptr %8) #8
  %10 = load ptr, ptr %5, align 8, !tbaa !3
  %11 = getelementptr inbounds nuw %struct.ssl_connection_st, ptr %10, i32 0, i32 14
  store ptr %11, ptr %8, align 8, !tbaa !10
  %12 = load ptr, ptr %8, align 8, !tbaa !10
  %13 = getelementptr inbounds nuw %struct.ossl_statem_st, ptr %12, i32 0, i32 5
  %14 = load i32, ptr %13, align 4, !tbaa !79
  switch i32 %14, label %15 [
    i32 18, label %17
    i32 13, label %34
    i32 52, label %37
    i32 51, label %40
    i32 14, label %43
    i32 16, label %46
    i32 17, label %49
    i32 19, label %52
    i32 20, label %55
    i32 47, label %58
  ]

15:                                               ; preds = %3
  call void @ERR_new()
  call void @ERR_set_debug(ptr noundef @.str, i32 noundef 946, ptr noundef @__func__.ossl_statem_client_construct_message)
  %16 = load ptr, ptr %5, align 8, !tbaa !3
  call void (ptr, i32, i32, ptr, ...) @ossl_statem_fatal(ptr noundef %16, i32 noundef 80, i32 noundef 236, ptr noundef null)
  store i32 0, ptr %4, align 4
  store i32 1, ptr %9, align 4
  br label %62

17:                                               ; preds = %3
  %18 = load ptr, ptr %5, align 8, !tbaa !3
  %19 = getelementptr inbounds nuw %struct.ssl_connection_st, ptr %18, i32 0, i32 0
  %20 = getelementptr inbounds nuw %struct.ssl_st, ptr %19, i32 0, i32 3
  %21 = load ptr, ptr %20, align 8, !tbaa !12
  %22 = getelementptr inbounds nuw %struct.ssl_method_st, ptr %21, i32 0, i32 28
  %23 = load ptr, ptr %22, align 8, !tbaa !73
  %24 = getelementptr inbounds nuw %struct.ssl3_enc_method, ptr %23, i32 0, i32 10
  %25 = load i32, ptr %24, align 8, !tbaa !76
  %26 = and i32 %25, 8
  %27 = icmp ne i32 %26, 0
  br i1 %27, label %28, label %30

28:                                               ; preds = %17
  %29 = load ptr, ptr %6, align 8, !tbaa !125
  store ptr @dtls_construct_change_cipher_spec, ptr %29, align 8, !tbaa !125
  br label %32

30:                                               ; preds = %17
  %31 = load ptr, ptr %6, align 8, !tbaa !125
  store ptr @tls_construct_change_cipher_spec, ptr %31, align 8, !tbaa !125
  br label %32

32:                                               ; preds = %30, %28
  %33 = load ptr, ptr %7, align 8, !tbaa !126
  store i32 257, ptr %33, align 4, !tbaa !8
  br label %61

34:                                               ; preds = %3
  %35 = load ptr, ptr %6, align 8, !tbaa !125
  store ptr @tls_construct_client_hello, ptr %35, align 8, !tbaa !125
  %36 = load ptr, ptr %7, align 8, !tbaa !126
  store i32 1, ptr %36, align 4, !tbaa !8
  br label %61

37:                                               ; preds = %3
  %38 = load ptr, ptr %6, align 8, !tbaa !125
  store ptr @tls_construct_end_of_early_data, ptr %38, align 8, !tbaa !125
  %39 = load ptr, ptr %7, align 8, !tbaa !126
  store i32 5, ptr %39, align 4, !tbaa !8
  br label %61

40:                                               ; preds = %3
  %41 = load ptr, ptr %6, align 8, !tbaa !125
  store ptr null, ptr %41, align 8, !tbaa !125
  %42 = load ptr, ptr %7, align 8, !tbaa !126
  store i32 -1, ptr %42, align 4, !tbaa !8
  br label %61

43:                                               ; preds = %3
  %44 = load ptr, ptr %6, align 8, !tbaa !125
  store ptr @tls_construct_client_certificate, ptr %44, align 8, !tbaa !125
  %45 = load ptr, ptr %7, align 8, !tbaa !126
  store i32 11, ptr %45, align 4, !tbaa !8
  br label %61

46:                                               ; preds = %3
  %47 = load ptr, ptr %6, align 8, !tbaa !125
  store ptr @tls_construct_client_key_exchange, ptr %47, align 8, !tbaa !125
  %48 = load ptr, ptr %7, align 8, !tbaa !126
  store i32 16, ptr %48, align 4, !tbaa !8
  br label %61

49:                                               ; preds = %3
  %50 = load ptr, ptr %6, align 8, !tbaa !125
  store ptr @tls_construct_cert_verify, ptr %50, align 8, !tbaa !125
  %51 = load ptr, ptr %7, align 8, !tbaa !126
  store i32 15, ptr %51, align 4, !tbaa !8
  br label %61

52:                                               ; preds = %3
  %53 = load ptr, ptr %6, align 8, !tbaa !125
  store ptr @tls_construct_next_proto, ptr %53, align 8, !tbaa !125
  %54 = load ptr, ptr %7, align 8, !tbaa !126
  store i32 67, ptr %54, align 4, !tbaa !8
  br label %61

55:                                               ; preds = %3
  %56 = load ptr, ptr %6, align 8, !tbaa !125
  store ptr @tls_construct_finished, ptr %56, align 8, !tbaa !125
  %57 = load ptr, ptr %7, align 8, !tbaa !126
  store i32 20, ptr %57, align 4, !tbaa !8
  br label %61

58:                                               ; preds = %3
  %59 = load ptr, ptr %6, align 8, !tbaa !125
  store ptr @tls_construct_key_update, ptr %59, align 8, !tbaa !125
  %60 = load ptr, ptr %7, align 8, !tbaa !126
  store i32 24, ptr %60, align 4, !tbaa !8
  br label %61

61:                                               ; preds = %58, %55, %52, %49, %46, %43, %40, %37, %34, %32
  store i32 1, ptr %4, align 4
  store i32 1, ptr %9, align 4
  br label %62

62:                                               ; preds = %61, %15
  call void @llvm.lifetime.end.p0(i64 8, ptr %8) #8
  %63 = load i32, ptr %4, align 4
  ret i32 %63
}