; Function Attrs: nounwind uwtable
define range(i32 0, 2) i32 @ossl_statem_client_construct_message(ptr noundef %0, ptr noundef writeonly captures(none) %1, ptr noundef writeonly captures(none) %2) local_unnamed_addr #0 {
  %4 = getelementptr inbounds nuw i8, ptr %0, i64 172
  %5 = load i32, ptr %4, align 4, !tbaa !75
  switch i32 %5, label %6 [
    i32 18, label %7
    i32 13, label %15
    i32 52, label %16
    i32 51, label %17
    i32 14, label %18
    i32 16, label %19
    i32 17, label %20
    i32 19, label %21
    i32 20, label %22
    i32 47, label %23
  ]

6:                                                ; preds = %3
  tail call void @ERR_new() #8
  tail call void @ERR_set_debug(ptr noundef nonnull @.str, i32 noundef 946, ptr noundef nonnull @__func__.ossl_statem_client_construct_message) #8
  tail call void (ptr, i32, i32, ptr, ...) @ossl_statem_fatal(ptr noundef nonnull %0, i32 noundef 80, i32 noundef 236, ptr noundef null) #8
  br label %24

7:                                                ; preds = %3
  %8 = getelementptr inbounds nuw i8, ptr %0, i64 24
  %9 = load ptr, ptr %8, align 8, !tbaa !3
  %10 = getelementptr inbounds nuw i8, ptr %9, i64 216
  %11 = load ptr, ptr %10, align 8, !tbaa !69
  %12 = getelementptr inbounds nuw i8, ptr %11, i64 80
  %13 = load i32, ptr %12, align 8, !tbaa !72
  %14 = and i32 %13, 8
  %.not = icmp eq i32 %14, 0
  %tls_construct_change_cipher_spec.dtls_construct_change_cipher_spec = select i1 %.not, ptr @tls_construct_change_cipher_spec, ptr @dtls_construct_change_cipher_spec
  store ptr %tls_construct_change_cipher_spec.dtls_construct_change_cipher_spec, ptr %1, align 8, !tbaa !120
  store i32 257, ptr %2, align 4, !tbaa !94
  br label %24

15:                                               ; preds = %3
  store ptr @tls_construct_client_hello, ptr %1, align 8, !tbaa !120
  store i32 1, ptr %2, align 4, !tbaa !94
  br label %24

16:                                               ; preds = %3
  store ptr @tls_construct_end_of_early_data, ptr %1, align 8, !tbaa !120
  store i32 5, ptr %2, align 4, !tbaa !94
  br label %24

17:                                               ; preds = %3
  store ptr null, ptr %1, align 8, !tbaa !120
  store i32 -1, ptr %2, align 4, !tbaa !94
  br label %24

18:                                               ; preds = %3
  store ptr @tls_construct_client_certificate, ptr %1, align 8, !tbaa !120
  store i32 11, ptr %2, align 4, !tbaa !94
  br label %24

19:                                               ; preds = %3
  store ptr @tls_construct_client_key_exchange, ptr %1, align 8, !tbaa !120
  store i32 16, ptr %2, align 4, !tbaa !94
  br label %24

20:                                               ; preds = %3
  store ptr @tls_construct_cert_verify, ptr %1, align 8, !tbaa !120
  store i32 15, ptr %2, align 4, !tbaa !94
  br label %24

21:                                               ; preds = %3
  store ptr @tls_construct_next_proto, ptr %1, align 8, !tbaa !120
  store i32 67, ptr %2, align 4, !tbaa !94
  br label %24

22:                                               ; preds = %3
  store ptr @tls_construct_finished, ptr %1, align 8, !tbaa !120
  store i32 20, ptr %2, align 4, !tbaa !94
  br label %24

23:                                               ; preds = %3
  store ptr @tls_construct_key_update, ptr %1, align 8, !tbaa !120
  store i32 24, ptr %2, align 4, !tbaa !94
  br label %24

24:                                               ; preds = %7, %15, %16, %17, %18, %19, %20, %21, %22, %23, %6
  %.0 = phi i32 [ 0, %6 ], [ 1, %23 ], [ 1, %22 ], [ 1, %21 ], [ 1, %20 ], [ 1, %19 ], [ 1, %18 ], [ 1, %17 ], [ 1, %16 ], [ 1, %15 ], [ 1, %7 ]
  ret i32 %.0
}